target datalayout = "e-m:e-p270:32:32-p271:32:32-p272:64:64-i64:64-i128:128-f80:128-n8:16:32:64-S128"
target triple = "x86_64-pc-linux-gnu"

%"class.icu_77::UObject" = type { ptr }
%"class.icu_77::LocalPointer" = type { %"class.icu_77::LocalPointerBase" }
%"class.icu_77::LocalPointerBase" = type { ptr }
%"class.(anonymous namespace)::AvailableLocalesStringEnumeration" = type { %"class.icu_77::StringEnumeration.base", i32, i32, [4 x i8] }
%"class.icu_77::StringEnumeration.base" = type <{ %"class.icu_77::UObject", %"class.icu_77::UnicodeString", [32 x i8], ptr, i32 }>
%"class.icu_77::UnicodeString" = type { %"class.icu_77::Replaceable", %"union.icu_77::UnicodeString::StackBufferOrFields" }
%"class.icu_77::Replaceable" = type { %"class.icu_77::UObject" }
%"union.icu_77::UnicodeString::StackBufferOrFields" = type { %struct.anon.0, [32 x i8] }
%struct.anon.0 = type { i16, i32, i32, ptr }

; Function Attrs: mustprogress nounwind uwtable
define internal void @_ZN6icu_7716LocalPointerBaseIN12_GLOBAL__N_133AvailableLocalesStringEnumerationEED2Ev(ptr noundef nonnull align 8 dereferenceable(8) %0) unnamed_addr #6 align 2 {
  %2 = alloca ptr, align 8
  store ptr %0, ptr %2, align 8, !tbaa !43
  ret void
}

; Function Attrs: inlinehint mustprogress nounwind uwtable
define internal noundef signext i8 @_ZL9U_SUCCESS10UErrorCode(i32 noundef %0) #7 {
  %2 = alloca i32, align 4
  store i32 %0, ptr %2, align 4, !tbaa !31
  %3 = load i32, ptr %2, align 4, !tbaa !31
  %4 = icmp sle i32 %3, 0
  %5 = zext i1 %4 to i8
  ret i8 %5
}

; Function Attrs: mustprogress nounwind uwtable
define internal void @_ZN6icu_7716LocalPointerBaseIN12_GLOBAL__N_133AvailableLocalesStringEnumerationEEC2EPS2_(ptr noundef nonnull align 8 dereferenceable(8) %0, ptr noundef %1) unnamed_addr #6 align 2 {
  %3 = alloca ptr, align 8
  %4 = alloca ptr, align 8
  store ptr %0, ptr %3, align 8, !tbaa !43
  store ptr %1, ptr %4, align 8, !tbaa !32
  %5 = load ptr, ptr %3, align 8
  %6 = getelementptr inbounds nuw %"class.icu_77::LocalPointerBase", ptr %5, i32 0, i32 0
  %7 = load ptr, ptr %4, align 8, !tbaa !32
  store ptr %7, ptr %6, align 8, !tbaa !45
  ret void
}

; Function Attrs: mustprogress nounwind uwtable
define internal noundef ptr @_ZN6icu_7716LocalPointerBaseIN12_GLOBAL__N_133AvailableLocalesStringEnumerationEE6orphanEv(ptr noundef nonnull align 8 dereferenceable(8) %0) #6 align 2 {
  %2 = alloca ptr, align 8
  %3 = alloca ptr, align 8
  store ptr %0, ptr %2, align 8, !tbaa !43
  %4 = load ptr, ptr %2, align 8
  call void @llvm.lifetime.start.p0(i64 8, ptr %3) #12
  %5 = getelementptr inbounds nuw %"class.icu_77::LocalPointerBase", ptr %4, i32 0, i32 0
  %6 = load ptr, ptr %5, align 8, !tbaa !45
  store ptr %6, ptr %3, align 8, !tbaa !32
  %7 = getelementptr inbounds nuw %"class.icu_77::LocalPointerBase", ptr %4, i32 0, i32 0
  store ptr null, ptr %7, align 8, !tbaa !45
  %8 = load ptr, ptr %3, align 8, !tbaa !32
  call void @llvm.lifetime.end.p0(i64 8, ptr %3) #12
  ret ptr %8
}

; Function Attrs: mustprogress nounwind uwtable
define internal void @_ZN6icu_7712LocalPointerIN12_GLOBAL__N_133AvailableLocalesStringEnumerationEED2Ev(ptr noundef nonnull align 8 dereferenceable(8) %0) unnamed_addr #6 align 2 {
  %2 = alloca ptr, align 8
  store ptr %0, ptr %2, align 8, !tbaa !41
  %3 = load ptr, ptr %2, align 8
  %4 = getelementptr inbounds nuw %"class.icu_77::LocalPointerBase", ptr %3, i32 0, i32 0
  %5 = load ptr, ptr %4, align 8, !tbaa !45
  %6 = icmp eq ptr %5, null
  br i1 %6, label %11, label %7

7:                                                ; preds = %1
  %8 = load ptr, ptr %5, align 8, !tbaa !24
  %9 = getelementptr inbounds ptr, ptr %8, i64 1
  %10 = load ptr, ptr %9, align 8
  call void %10(ptr noundef nonnull align 8 dereferenceable(124) %5) #12
  br label %11

11:                                               ; preds = %7, %1
  call void @_ZN6icu_7716LocalPointerBaseIN12_GLOBAL__N_133AvailableLocalesStringEnumerationEED2Ev(ptr noundef nonnull align 8 dereferenceable(8) %3) #12
  ret void
}

; Function Attrs: mustprogress uwtable
define internal void @_ZN6icu_7712LocalPointerIN12_GLOBAL__N_133AvailableLocalesStringEnumerationEEC2EPS2_R10UErrorCode(ptr noundef nonnull align 8 dereferenceable(8) %0, ptr noundef %1, ptr noundef nonnull align 4 dereferenceable(4) %2) unnamed_addr #0 align 2 personality ptr @__gxx_personality_v0 {
  %4 = alloca ptr, align 8
  %5 = alloca ptr, align 8
  %6 = alloca ptr, align 8
  %7 = alloca ptr, align 8
  %8 = alloca i32, align 4
  store ptr %0, ptr %4, align 8, !tbaa !41
  store ptr %1, ptr %5, align 8, !tbaa !32
  store ptr %2, ptr %6, align 8, !tbaa !21
  %9 = load ptr, ptr %4, align 8
  %10 = load ptr, ptr %5, align 8, !tbaa !32
  call void @_ZN6icu_7716LocalPointerBaseIN12_GLOBAL__N_133AvailableLocalesStringEnumerationEEC2EPS2_(ptr noundef nonnull align 8 dereferenceable(8) %9, ptr noundef %10)
  %11 = load ptr, ptr %5, align 8, !tbaa !32
  %12 = icmp eq ptr %11, null
  br i1 %12, label %13, label %25

13:                                               ; preds = %3
  %14 = load ptr, ptr %6, align 8, !tbaa !21
  %15 = load i32, ptr %14, align 4, !tbaa !31
  %16 = invoke noundef signext i8 @_ZL9U_SUCCESS10UErrorCode(i32 noundef %15)
          to label %17 unwind label %21

17:                                               ; preds = %13
  %18 = icmp ne i8 %16, 0
  br i1 %18, label %19, label %25

19:                                               ; preds = %17
  %20 = load ptr, ptr %6, align 8, !tbaa !21
  store i32 7, ptr %20, align 4, !tbaa !31
  br label %25

21:                                               ; preds = %13
  %22 = landingpad { ptr, i32 }
          cleanup
  %23 = extractvalue { ptr, i32 } %22, 0
  store ptr %23, ptr %7, align 8
  %24 = extractvalue { ptr, i32 } %22, 1
  store i32 %24, ptr %8, align 4
  call void @_ZN6icu_7716LocalPointerBaseIN12_GLOBAL__N_133AvailableLocalesStringEnumerationEED2Ev(ptr noundef nonnull align 8 dereferenceable(8) %9) #12
  br label %26

25:                                               ; preds = %19, %17, %3
  ret void

26:                                               ; preds = %21
  %27 = load ptr, ptr %7, align 8
  %28 = load i32, ptr %8, align 4
  %29 = insertvalue { ptr, i32 } poison, ptr %27, 0
  %30 = insertvalue { ptr, i32 } %29, i32 %28, 1
  resume { ptr, i32 } %30
}

; Function Attrs: mustprogress uwtable
define internal void @_ZN12_GLOBAL__N_133AvailableLocalesStringEnumerationC2E17ULocAvailableType(ptr noundef nonnull align 8 dereferenceable(124) %0, i32 noundef %1) unnamed_addr #0 align 2 {
  %3 = alloca ptr, align 8
  %4 = alloca i32, align 4
  store ptr %0, ptr %3, align 8, !tbaa !32
  store i32 %1, ptr %4, align 4, !tbaa !29
  %5 = load ptr, ptr %3, align 8
  call void @_ZN6icu_7717StringEnumerationC2Ev(ptr noundef nonnull align 8 dereferenceable(116) %5)
  store ptr getelementptr inbounds inrange(-16, 88) ({ [13 x ptr] }, ptr @_ZTVN12_GLOBAL__N_133AvailableLocalesStringEnumerationE, i32 0, i32 0, i32 2), ptr %5, align 8, !tbaa !24
  %6 = getelementptr inbounds nuw %"class.(anonymous namespace)::AvailableLocalesStringEnumeration", ptr %5, i32 0, i32 1
  %7 = load i32, ptr %4, align 4, !tbaa !29
  store i32 %7, ptr %6, align 4, !tbaa !34
  %8 = getelementptr inbounds nuw %"class.(anonymous namespace)::AvailableLocalesStringEnumeration", ptr %5, i32 0, i32 2
  store i32 0, ptr %8, align 8, !tbaa !40
  ret void
}

; Function Attrs: inlinehint mustprogress nounwind uwtable
define internal noundef signext i8 @_ZL9U_FAILURE10UErrorCode(i32 noundef %0) #7 {
  %2 = alloca i32, align 4
  store i32 %0, ptr %2, align 4, !tbaa !31
  %3 = load i32, ptr %2, align 4, !tbaa !31
  %4 = icmp sgt i32 %3, 0
  %5 = zext i1 %4 to i8
  ret i8 %5
}

; Function Attrs: mustprogress uwtable
define ptr @uloc_openAvailableByType_77(i32 noundef %0, ptr noundef %1) #0 personality ptr @__gxx_personality_v0 {
  %3 = alloca ptr, align 8
  %4 = alloca i32, align 4
  %5 = alloca ptr, align 8
  %6 = alloca %"class.icu_77::LocalPointer", align 8
  %7 = alloca ptr, align 8
  %8 = alloca i1, align 1
  %9 = alloca ptr, align 8
  %10 = alloca i32, align 4
  %11 = alloca i32, align 4
  store i32 %0, ptr %4, align 4, !tbaa !29
  store ptr %1, ptr %5, align 8, !tbaa !21
  %12 = load ptr, ptr %5, align 8, !tbaa !21
  %13 = load i32, ptr %12, align 4, !tbaa !31
  %14 = call noundef signext i8 @_ZL9U_FAILURE10UErrorCode(i32 noundef %13)
  %15 = icmp ne i8 %14, 0
  br i1 %15, label %16, label %17

16:                                               ; preds = %2
  store ptr null, ptr %3, align 8
  br label %67

17:                                               ; preds = %2
  %18 = load i32, ptr %4, align 4, !tbaa !29
  %19 = icmp slt i32 %18, 0
  br i1 %19, label %23, label %20

20:                                               ; preds = %17
  %21 = load i32, ptr %4, align 4, !tbaa !29
  %22 = icmp sge i32 %21, 3
  br i1 %22, label %23, label %25

23:                                               ; preds = %20, %17
  %24 = load ptr, ptr %5, align 8, !tbaa !21
  store i32 1, ptr %24, align 4, !tbaa !31
  store ptr null, ptr %3, align 8
  br label %67

25:                                               ; preds = %20
  %26 = load ptr, ptr %5, align 8, !tbaa !21
  call void @_ZN12_GLOBAL__N_122_load_installedLocalesER10UErrorCode(ptr noundef nonnull align 4 dereferenceable(4) %26)
  %27 = load ptr, ptr %5, align 8, !tbaa !21
  %28 = load i32, ptr %27, align 4, !tbaa !31
  %29 = call noundef signext i8 @_ZL9U_FAILURE10UErrorCode(i32 noundef %28)
  %30 = icmp ne i8 %29, 0
  br i1 %30, label %31, label %32

31:                                               ; preds = %25
  store ptr null, ptr %3, align 8
  br label %67

32:                                               ; preds = %25
  call void @llvm.lifetime.start.p0(i64 8, ptr %6) #12
  %33 = call noundef ptr @_ZN6icu_777UMemorynwEm(i64 noundef 128) #12
  %34 = icmp eq ptr %33, null
  store i1 false, ptr %8, align 1
  br i1 %34, label %38, label %35

35:                                               ; preds = %32
  store ptr %33, ptr %7, align 8
  store i1 true, ptr %8, align 1
  %36 = load i32, ptr %4, align 4, !tbaa !29
  invoke void @_ZN12_GLOBAL__N_133AvailableLocalesStringEnumerationC2E17ULocAvailableType(ptr noundef nonnull align 8 dereferenceable(124) %33, i32 noundef %36)
          to label %37 unwind label %47

37:                                               ; preds = %35
  br label %38

38:                                               ; preds = %37, %32
  %39 = phi ptr [ %33, %37 ], [ null, %32 ]
  %40 = load ptr, ptr %5, align 8, !tbaa !21
  call void @_ZN6icu_7712LocalPointerIN12_GLOBAL__N_133AvailableLocalesStringEnumerationEEC2EPS2_R10UErrorCode(ptr noundef nonnull align 8 dereferenceable(8) %6, ptr noundef %39, ptr noundef nonnull align 4 dereferenceable(4) %40)
  %41 = load ptr, ptr %5, align 8, !tbaa !21
  %42 = load i32, ptr %41, align 4, !tbaa !31
  %43 = invoke noundef signext i8 @_ZL9U_FAILURE10UErrorCode(i32 noundef %42)
          to label %44 unwind label %55

44:                                               ; preds = %38
  %45 = icmp ne i8 %43, 0
  br i1 %45, label %46, label %59

46:                                               ; preds = %44
  store ptr null, ptr %3, align 8
  store i32 1, ptr %11, align 4
  br label %65

47:                                               ; preds = %35
  %48 = landingpad { ptr, i32 }
          cleanup
  %49 = extractvalue { ptr, i32 } %48, 0
  store ptr %49, ptr %9, align 8
  %50 = extractvalue { ptr, i32 } %48, 1
  store i32 %50, ptr %10, align 4
  %51 = load i1, ptr %8, align 1
  br i1 %51, label %52, label %54

52:                                               ; preds = %47
  %53 = load ptr, ptr %7, align 8
  call void @_ZN6icu_777UMemorydlEPv(ptr noundef %53) #12
  br label %54

54:                                               ; preds = %52, %47
  br label %66

55:                                               ; preds = %61, %59, %38
  %56 = landingpad { ptr, i32 }
          cleanup
  %57 = extractvalue { ptr, i32 } %56, 0
  store ptr %57, ptr %9, align 8
  %58 = extractvalue { ptr, i32 } %56, 1
  store i32 %58, ptr %10, align 4
  call void @_ZN6icu_7712LocalPointerIN12_GLOBAL__N_133AvailableLocalesStringEnumerationEED2Ev(ptr noundef nonnull align 8 dereferenceable(8) %6) #12
  br label %66

59:                                               ; preds = %44
  %60 = invoke noundef ptr @_ZN6icu_7716LocalPointerBaseIN12_GLOBAL__N_133AvailableLocalesStringEnumerationEE6orphanEv(ptr noundef nonnull align 8 dereferenceable(8) %6)
          to label %61 unwind label %55

61:                                               ; preds = %59
  %62 = load ptr, ptr %5, align 8, !tbaa !21
  %63 = invoke ptr @uenum_openFromStringEnumeration_77(ptr noundef %60, ptr noundef %62)
          to label %64 unwind label %55

64:                                               ; preds = %61
  store ptr %63, ptr %3, align 8
  store i32 1, ptr %11, align 4
  br label %65

65:                                               ; preds = %64, %46
  call void @_ZN6icu_7712LocalPointerIN12_GLOBAL__N_133AvailableLocalesStringEnumerationEED2Ev(ptr noundef nonnull align 8 dereferenceable(8) %6) #12
  call void @llvm.lifetime.end.p0(i64 8, ptr %6) #12
  br label %67

66:                                               ; preds = %55, %54
  call void @llvm.lifetime.end.p0(i64 8, ptr %6) #12
  br label %69

67:                                               ; preds = %65, %31, %23, %16
  %68 = load ptr, ptr %3, align 8
  ret ptr %68

69:                                               ; preds = %66
  %70 = load ptr, ptr %9, align 8
  %71 = load i32, ptr %10, align 4
  %72 = insertvalue { ptr, i32 } poison, ptr %70, 0
  %73 = insertvalue { ptr, i32 } %72, i32 %71, 1
  resume { ptr, i32 } %73
}