; Function Attrs: mustprogress uwtable
define ptr @uloc_openAvailableByType_77(i32 noundef %0, ptr noundef %1) local_unnamed_addr #0 personality ptr @__gxx_personality_v0 {
  %3 = load i32, ptr %1, align 4, !tbaa !22
  %4 = icmp slt i32 %3, 1
  br i1 %4, label %5, label %_ZN6icu_7712LocalPointerIN12_GLOBAL__N_133AvailableLocalesStringEnumerationEED2Ev.exit23

5:                                                ; preds = %2
  %or.cond = icmp ugt i32 %0, 2
  br i1 %or.cond, label %6, label %7

6:                                                ; preds = %5
  store i32 1, ptr %1, align 4, !tbaa !22
  br label %_ZN6icu_7712LocalPointerIN12_GLOBAL__N_133AvailableLocalesStringEnumerationEED2Ev.exit23

7:                                                ; preds = %5
  tail call fastcc void @_ZN12_GLOBAL__N_122_load_installedLocalesER10UErrorCode(ptr noundef nonnull align 4 dereferenceable(4) %1)
  %8 = load i32, ptr %1, align 4, !tbaa !22
  %9 = icmp slt i32 %8, 1
  br i1 %9, label %10, label %_ZN6icu_7712LocalPointerIN12_GLOBAL__N_133AvailableLocalesStringEnumerationEED2Ev.exit23

10:                                               ; preds = %7
  %11 = tail call noundef ptr @_ZN6icu_777UMemorynwEm(i64 noundef 128) #14
  %12 = icmp eq ptr %11, null
  br i1 %12, label %14, label %13

13:                                               ; preds = %10
  invoke void @_ZN6icu_7717StringEnumerationC2Ev(ptr noundef nonnull align 8 dereferenceable(124) %11)
          to label %_ZN6icu_7712LocalPointerIN12_GLOBAL__N_133AvailableLocalesStringEnumerationEEC2EPS2_R10UErrorCode.exit unwind label %21

14:                                               ; preds = %10
  %15 = load i32, ptr %1, align 4
  %16 = icmp sgt i32 %15, 0
  br i1 %16, label %_ZN6icu_7712LocalPointerIN12_GLOBAL__N_133AvailableLocalesStringEnumerationEED2Ev.exit23, label %17

17:                                               ; preds = %14
  store i32 7, ptr %1, align 4, !tbaa !22
  br label %_ZN6icu_7712LocalPointerIN12_GLOBAL__N_133AvailableLocalesStringEnumerationEED2Ev.exit23

_ZN6icu_7712LocalPointerIN12_GLOBAL__N_133AvailableLocalesStringEnumerationEEC2EPS2_R10UErrorCode.exit: ; preds = %13
  store ptr getelementptr inbounds nuw inrange(-16, 88) (i8, ptr @_ZTVN12_GLOBAL__N_133AvailableLocalesStringEnumerationE, i64 16), ptr %11, align 8, !tbaa !3
  %18 = getelementptr inbounds nuw i8, ptr %11, i64 116
  store i32 %0, ptr %18, align 4, !tbaa !30
  %19 = getelementptr inbounds nuw i8, ptr %11, i64 120
  store i32 0, ptr %19, align 8, !tbaa !37
  %.pre = load i32, ptr %1, align 4, !tbaa !22
  %20 = icmp slt i32 %.pre, 1
  br i1 %20, label %23, label %25

21:                                               ; preds = %13
  %22 = landingpad { ptr, i32 }
          cleanup
  tail call void @_ZN6icu_777UMemorydlEPv(ptr noundef nonnull %11) #14
  resume { ptr, i32 } %22

23:                                               ; preds = %_ZN6icu_7712LocalPointerIN12_GLOBAL__N_133AvailableLocalesStringEnumerationEEC2EPS2_R10UErrorCode.exit
  %24 = tail call ptr @uenum_openFromStringEnumeration_77(ptr noundef nonnull %11, ptr noundef nonnull %1)
  br label %_ZN6icu_7712LocalPointerIN12_GLOBAL__N_133AvailableLocalesStringEnumerationEED2Ev.exit23

25:                                               ; preds = %_ZN6icu_7712LocalPointerIN12_GLOBAL__N_133AvailableLocalesStringEnumerationEEC2EPS2_R10UErrorCode.exit
  %26 = load ptr, ptr %11, align 8, !tbaa !3
  %27 = getelementptr inbounds nuw i8, ptr %26, i64 8
  %28 = load ptr, ptr %27, align 8
  tail call void %28(ptr noundef nonnull align 8 dereferenceable(124) %11) #14
  br label %_ZN6icu_7712LocalPointerIN12_GLOBAL__N_133AvailableLocalesStringEnumerationEED2Ev.exit23

_ZN6icu_7712LocalPointerIN12_GLOBAL__N_133AvailableLocalesStringEnumerationEED2Ev.exit23: ; preds = %14, %17, %23, %25, %7, %2, %6
  %.016 = phi ptr [ null, %6 ], [ null, %2 ], [ null, %7 ], [ null, %25 ], [ %24, %23 ], [ null, %17 ], [ null, %14 ]
  ret ptr %.016
}